; Function Attrs: mustprogress nounwind uwtable
define internal fastcc void @_ZN7testing8internal10linked_ptrINS0_25ParameterizedTestCaseInfoIN12_GLOBAL__N_110SerializePEE8TestInfoEED2Ev(ptr noundef nonnull readonly align 8 dereferenceable(16) %0) unnamed_addr #6 align 2 personality ptr @__gxx_personality_v0 {
  %2 = getelementptr inbounds nuw i8, ptr %0, i64 8
  %3 = load ptr, ptr %2, align 8
  %4 = icmp eq ptr %3, %2
  br i1 %4, label %6, label %.preheader.i.i

.preheader.i.i:                                   ; preds = %1, %.preheader.i.i
  %.0.i.i = phi ptr [ %5, %.preheader.i.i ], [ %3, %1 ]
  %5 = load ptr, ptr %.0.i.i, align 8
  %.not.i.i = icmp eq ptr %5, %2
  br i1 %.not.i.i, label %_ZN7testing8internal19linked_ptr_internal6departEv.exit.i, label %.preheader.i.i, !llvm.loop !25

_ZN7testing8internal19linked_ptr_internal6departEv.exit.i: ; preds = %.preheader.i.i
  store ptr %3, ptr %.0.i.i, align 8
  br label %_ZN7testing8internal10linked_ptrINS0_25ParameterizedTestCaseInfoIN12_GLOBAL__N_110SerializePEE8TestInfoEE6departEv.exit

6:                                                ; preds = %1
  %7 = load ptr, ptr %0, align 8
  %8 = icmp eq ptr %7, null
  br i1 %8, label %_ZN7testing8internal10linked_ptrINS0_25ParameterizedTestCaseInfoIN12_GLOBAL__N_110SerializePEE8TestInfoEE6departEv.exit, label %9

9:                                                ; preds = %6
  %10 = getelementptr inbounds nuw i8, ptr %7, i64 64
  %11 = load ptr, ptr %10, align 8
  %.not.i.i.i.i = icmp eq ptr %11, null
  br i1 %.not.i.i.i.i, label %_ZN7testing8internal10scoped_ptrINS0_19TestMetaFactoryBaseISt5tupleIJj7patternEEEEED2Ev.exit.i.i, label %12

12:                                               ; preds = %9
  %13 = invoke noundef zeroext i1 @_ZN7testing8internal6IsTrueEb(i1 noundef zeroext true)
          to label %.noexc.i.i.i unwind label %22

.noexc.i.i.i:                                     ; preds = %12
  br i1 %13, label %14, label %21

14:                                               ; preds = %.noexc.i.i.i
  %15 = load ptr, ptr %10, align 8
  %16 = icmp eq ptr %15, null
  br i1 %16, label %21, label %17

17:                                               ; preds = %14
  %18 = load ptr, ptr %15, align 8
  %19 = getelementptr inbounds nuw i8, ptr %18, i64 8
  %20 = load ptr, ptr %19, align 8
  tail call void %20(ptr noundef nonnull align 8 dereferenceable(8) %15) #30
  br label %21

21:                                               ; preds = %17, %14, %.noexc.i.i.i
  store ptr null, ptr %10, align 8
  br label %_ZN7testing8internal10scoped_ptrINS0_19TestMetaFactoryBaseISt5tupleIJj7patternEEEEED2Ev.exit.i.i

22:                                               ; preds = %12
  %23 = landingpad { ptr, i32 }
          catch ptr null
  %24 = extractvalue { ptr, i32 } %23, 0
  tail call void @__clang_call_terminate(ptr %24) #31
  unreachable

_ZN7testing8internal10scoped_ptrINS0_19TestMetaFactoryBaseISt5tupleIJj7patternEEEEED2Ev.exit.i.i: ; preds = %21, %9
  %25 = getelementptr inbounds nuw i8, ptr %7, i64 32
  %26 = load ptr, ptr %25, align 8
  %27 = getelementptr inbounds nuw i8, ptr %7, i64 48
  %28 = icmp eq ptr %26, %27
  br i1 %28, label %_ZNKSt7__cxx1112basic_stringIcSt11char_traitsIcESaIcEE11_M_is_localEv.exit.thread.i.i.i.i, label %_ZNKSt7__cxx1112basic_stringIcSt11char_traitsIcESaIcEE11_M_is_localEv.exit.i.i.i.i

_ZNKSt7__cxx1112basic_stringIcSt11char_traitsIcESaIcEE11_M_is_localEv.exit.thread.i.i.i.i: ; preds = %_ZN7testing8internal10scoped_ptrINS0_19TestMetaFactoryBaseISt5tupleIJj7patternEEEEED2Ev.exit.i.i
  %29 = getelementptr inbounds nuw i8, ptr %7, i64 40
  %30 = load i64, ptr %29, align 8
  %31 = icmp ult i64 %30, 16
  tail call void @llvm.assume(i1 %31)
  br label %_ZNSt7__cxx1112basic_stringIcSt11char_traitsIcESaIcEED2Ev.exit.i.i

_ZNKSt7__cxx1112basic_stringIcSt11char_traitsIcESaIcEE11_M_is_localEv.exit.i.i.i.i: ; preds = %_ZN7testing8internal10scoped_ptrINS0_19TestMetaFactoryBaseISt5tupleIJj7patternEEEEED2Ev.exit.i.i
  tail call void @_ZdlPv(ptr noundef %26) #29
  br label %_ZNSt7__cxx1112basic_stringIcSt11char_traitsIcESaIcEED2Ev.exit.i.i

_ZNSt7__cxx1112basic_stringIcSt11char_traitsIcESaIcEED2Ev.exit.i.i: ; preds = %_ZNKSt7__cxx1112basic_stringIcSt11char_traitsIcESaIcEE11_M_is_localEv.exit.i.i.i.i, %_ZNKSt7__cxx1112basic_stringIcSt11char_traitsIcESaIcEE11_M_is_localEv.exit.thread.i.i.i.i
  %32 = load ptr, ptr %7, align 8
  %33 = getelementptr inbounds nuw i8, ptr %7, i64 16
  %34 = icmp eq ptr %32, %33
  br i1 %34, label %_ZNKSt7__cxx1112basic_stringIcSt11char_traitsIcESaIcEE11_M_is_localEv.exit.thread.i.i2.i.i, label %_ZNKSt7__cxx1112basic_stringIcSt11char_traitsIcESaIcEE11_M_is_localEv.exit.i.i1.i.i

_ZNKSt7__cxx1112basic_stringIcSt11char_traitsIcESaIcEE11_M_is_localEv.exit.thread.i.i2.i.i: ; preds = %_ZNSt7__cxx1112basic_stringIcSt11char_traitsIcESaIcEED2Ev.exit.i.i
  %35 = getelementptr inbounds nuw i8, ptr %7, i64 8
  %36 = load i64, ptr %35, align 8
  %37 = icmp ult i64 %36, 16
  tail call void @llvm.assume(i1 %37)
  br label %_ZN7testing8internal25ParameterizedTestCaseInfoIN12_GLOBAL__N_110SerializePEE8TestInfoD2Ev.exit.i

_ZNKSt7__cxx1112basic_stringIcSt11char_traitsIcESaIcEE11_M_is_localEv.exit.i.i1.i.i: ; preds = %_ZNSt7__cxx1112basic_stringIcSt11char_traitsIcESaIcEED2Ev.exit.i.i
  tail call void @_ZdlPv(ptr noundef %32) #29
  br label %_ZN7testing8internal25ParameterizedTestCaseInfoIN12_GLOBAL__N_110SerializePEE8TestInfoD2Ev.exit.i

_ZN7testing8internal25ParameterizedTestCaseInfoIN12_GLOBAL__N_110SerializePEE8TestInfoD2Ev.exit.i: ; preds = %_ZNKSt7__cxx1112basic_stringIcSt11char_traitsIcESaIcEE11_M_is_localEv.exit.i.i1.i.i, %_ZNKSt7__cxx1112basic_stringIcSt11char_traitsIcESaIcEE11_M_is_localEv.exit.thread.i.i2.i.i
  tail call void @_ZdlPv(ptr noundef nonnull %7) #29
  br label %_ZN7testing8internal10linked_ptrINS0_25ParameterizedTestCaseInfoIN12_GLOBAL__N_110SerializePEE8TestInfoEE6departEv.exit

_ZN7testing8internal10linked_ptrINS0_25ParameterizedTestCaseInfoIN12_GLOBAL__N_110SerializePEE8TestInfoEE6departEv.exit: ; preds = %_ZN7testing8internal25ParameterizedTestCaseInfoIN12_GLOBAL__N_110SerializePEE8TestInfoD2Ev.exit.i, %6, %_ZN7testing8internal19linked_ptr_internal6departEv.exit.i
  ret void
}